; Function Attrs: nounwind uwtable
define void @png_free(ptr noalias noundef %0, ptr noundef %1) local_unnamed_addr #0 {
  %3 = icmp eq ptr %0, null
  %4 = icmp eq ptr %1, null
  %or.cond = or i1 %3, %4
  br i1 %or.cond, label %9, label %5

5:                                                ; preds = %2
  %6 = getelementptr inbounds nuw i8, ptr %0, i64 1072
  %7 = load ptr, ptr %6, align 8, !tbaa !27
  %.not = icmp eq ptr %7, null
  br i1 %.not, label %png_free_default.exit, label %8

8:                                                ; preds = %5
  tail call void %7(ptr noundef nonnull %0, ptr noundef nonnull %1) #12
  br label %9

png_free_default.exit:                            ; preds = %5
  tail call void @free(ptr noundef nonnull %1) #12
  br label %9

9:                                                ; preds = %2, %png_free_default.exit, %8
  ret void
}